target datalayout = "e-m:e-p270:32:32-p271:32:32-p272:64:64-i64:64-i128:128-f80:128-n8:16:32:64-S128"
target triple = "x86_64-pc-linux-gnu"

%struct.png_struct_def = type { [1 x %struct.__jmp_buf_tag], ptr, ptr, i64, ptr, ptr, ptr, ptr, ptr, ptr, ptr, ptr, ptr, i8, i8, i32, i32, i32, i32, %struct.z_stream_s, ptr, i32, i32, i32, i32, i32, i32, i32, i32, i32, i32, i32, i32, i32, i32, i32, i32, i32, i32, i32, i32, i32, i64, i32, i32, i32, ptr, ptr, ptr, ptr, i64, i32, i32, ptr, i16, i32, i16, i8, i8, i8, i8, i8, i8, i8, i8, i8, i8, i8, i8, i8, i8, i8, i16, i8, i32, %struct.png_color_16_struct, %struct.png_color_16_struct, ptr, i32, i32, %struct.png_xy, i32, i32, i32, i32, i32, ptr, ptr, ptr, ptr, ptr, ptr, %struct.png_color_8_struct, %struct.png_color_8_struct, ptr, %struct.png_color_16_struct, ptr, ptr, ptr, ptr, ptr, ptr, ptr, ptr, ptr, i32, i32, i64, i64, i64, i64, i32, i32, ptr, ptr, i32, [29 x i8], i32, ptr, ptr, i32, i32, ptr, i8, i8, i16, i16, ptr, i32, i8, ptr, ptr, ptr, ptr, ptr, ptr, ptr, i8, i32, i32, i32, i64, %struct.png_unknown_chunk_t, i64, ptr, i64, i32, i32, ptr, [4 x ptr] }
%struct.__jmp_buf_tag = type { [8 x i64], i32, %struct.__sigset_t }
%struct.__sigset_t = type { [16 x i64] }
%struct.z_stream_s = type { ptr, i32, i64, ptr, i32, i64, ptr, ptr, ptr, ptr, ptr, i32, i64, i64 }
%struct.png_xy = type { i32, i32, i32, i32, i32, i32, i32, i32 }
%struct.png_color_8_struct = type { i8, i8, i8, i8, i8 }
%struct.png_color_16_struct = type { i8, i16, i16, i16, i16 }
%struct.png_unknown_chunk_t = type { [5 x i8], ptr, i64, i8 }

@.str = private unnamed_addr constant [41 x i8] c"Can't discard critical data on CRC error\00", align 1

; Function Attrs: nounwind uwtable
define void @png_set_crc_action(ptr noalias noundef %0, i32 noundef %1, i32 noundef %2) #0 {
  %4 = alloca ptr, align 8
  %5 = alloca i32, align 4
  %6 = alloca i32, align 4
  store ptr %0, ptr %4, align 8, !tbaa !3
  store i32 %1, ptr %5, align 4, !tbaa !8
  store i32 %2, ptr %6, align 4, !tbaa !8
  %7 = load ptr, ptr %4, align 8, !tbaa !3
  %8 = icmp eq ptr %7, null
  br i1 %8, label %9, label %10

9:                                                ; preds = %3
  br label %73

10:                                               ; preds = %3
  %11 = load i32, ptr %5, align 4, !tbaa !8
  switch i32 %11, label %33 [
    i32 5, label %38
    i32 3, label %12
    i32 4, label %21
    i32 2, label %30
    i32 1, label %32
    i32 0, label %32
  ]

12:                                               ; preds = %10
  %13 = load ptr, ptr %4, align 8, !tbaa !3
  %14 = getelementptr inbounds nuw %struct.png_struct_def, ptr %13, i32 0, i32 16
  %15 = load i32, ptr %14, align 8, !tbaa !10
  %16 = and i32 %15, -3073
  store i32 %16, ptr %14, align 8, !tbaa !10
  %17 = load ptr, ptr %4, align 8, !tbaa !3
  %18 = getelementptr inbounds nuw %struct.png_struct_def, ptr %17, i32 0, i32 16
  %19 = load i32, ptr %18, align 8, !tbaa !10
  %20 = or i32 %19, 1024
  store i32 %20, ptr %18, align 8, !tbaa !10
  br label %38

21:                                               ; preds = %10
  %22 = load ptr, ptr %4, align 8, !tbaa !3
  %23 = getelementptr inbounds nuw %struct.png_struct_def, ptr %22, i32 0, i32 16
  %24 = load i32, ptr %23, align 8, !tbaa !10
  %25 = and i32 %24, -3073
  store i32 %25, ptr %23, align 8, !tbaa !10
  %26 = load ptr, ptr %4, align 8, !tbaa !3
  %27 = getelementptr inbounds nuw %struct.png_struct_def, ptr %26, i32 0, i32 16
  %28 = load i32, ptr %27, align 8, !tbaa !10
  %29 = or i32 %28, 3072
  store i32 %29, ptr %27, align 8, !tbaa !10
  br label %38

30:                                               ; preds = %10
  %31 = load ptr, ptr %4, align 8, !tbaa !3
  call void @png_warning(ptr noundef %31, ptr noundef @.str)
  br label %32

32:                                               ; preds = %10, %10, %30
  br label %33

33:                                               ; preds = %10, %32
  %34 = load ptr, ptr %4, align 8, !tbaa !3
  %35 = getelementptr inbounds nuw %struct.png_struct_def, ptr %34, i32 0, i32 16
  %36 = load i32, ptr %35, align 8, !tbaa !10
  %37 = and i32 %36, -3073
  store i32 %37, ptr %35, align 8, !tbaa !10
  br label %38

38:                                               ; preds = %33, %21, %12, %10
  %39 = load i32, ptr %6, align 4, !tbaa !8
  switch i32 %39, label %68 [
    i32 5, label %73
    i32 3, label %40
    i32 4, label %49
    i32 1, label %58
    i32 2, label %67
    i32 0, label %67
  ]

40:                                               ; preds = %38
  %41 = load ptr, ptr %4, align 8, !tbaa !3
  %42 = getelementptr inbounds nuw %struct.png_struct_def, ptr %41, i32 0, i32 16
  %43 = load i32, ptr %42, align 8, !tbaa !10
  %44 = and i32 %43, -769
  store i32 %44, ptr %42, align 8, !tbaa !10
  %45 = load ptr, ptr %4, align 8, !tbaa !3
  %46 = getelementptr inbounds nuw %struct.png_struct_def, ptr %45, i32 0, i32 16
  %47 = load i32, ptr %46, align 8, !tbaa !10
  %48 = or i32 %47, 256
  store i32 %48, ptr %46, align 8, !tbaa !10
  br label %73

49:                                               ; preds = %38
  %50 = load ptr, ptr %4, align 8, !tbaa !3
  %51 = getelementptr inbounds nuw %struct.png_struct_def, ptr %50, i32 0, i32 16
  %52 = load i32, ptr %51, align 8, !tbaa !10
  %53 = and i32 %52, -769
  store i32 %53, ptr %51, align 8, !tbaa !10
  %54 = load ptr, ptr %4, align 8, !tbaa !3
  %55 = getelementptr inbounds nuw %struct.png_struct_def, ptr %54, i32 0, i32 16
  %56 = load i32, ptr %55, align 8, !tbaa !10
  %57 = or i32 %56, 768
  store i32 %57, ptr %55, align 8, !tbaa !10
  br label %73

58:                                               ; preds = %38
  %59 = load ptr, ptr %4, align 8, !tbaa !3
  %60 = getelementptr inbounds nuw %struct.png_struct_def, ptr %59, i32 0, i32 16
  %61 = load i32, ptr %60, align 8, !tbaa !10
  %62 = and i32 %61, -769
  store i32 %62, ptr %60, align 8, !tbaa !10
  %63 = load ptr, ptr %4, align 8, !tbaa !3
  %64 = getelementptr inbounds nuw %struct.png_struct_def, ptr %63, i32 0, i32 16
  %65 = load i32, ptr %64, align 8, !tbaa !10
  %66 = or i32 %65, 512
  store i32 %66, ptr %64, align 8, !tbaa !10
  br label %73

67:                                               ; preds = %38, %38
  br label %68

68:                                               ; preds = %38, %67
  %69 = load ptr, ptr %4, align 8, !tbaa !3
  %70 = getelementptr inbounds nuw %struct.png_struct_def, ptr %69, i32 0, i32 16
  %71 = load i32, ptr %70, align 8, !tbaa !10
  %72 = and i32 %71, -769
  store i32 %72, ptr %70, align 8, !tbaa !10
  br label %73

73:                                               ; preds = %9, %68, %58, %49, %40, %38
  ret void
}