; Function Attrs: nounwind uwtable
define void @png_set_crc_action(ptr noalias noundef %0, i32 noundef %1, i32 noundef %2) local_unnamed_addr #0 {
  %4 = icmp eq ptr %0, null
  br i1 %4, label %39, label %5

5:                                                ; preds = %3
  switch i32 %1, label %16 [
    i32 5, label %20
    i32 3, label %6
    i32 4, label %11
    i32 2, label %15
  ]

6:                                                ; preds = %5
  %7 = getelementptr inbounds nuw i8, ptr %0, i64 304
  %8 = load i32, ptr %7, align 8, !tbaa !3
  %9 = and i32 %8, -3073
  %10 = or disjoint i32 %9, 1024
  store i32 %10, ptr %7, align 8, !tbaa !3
  br label %20

11:                                               ; preds = %5
  %12 = getelementptr inbounds nuw i8, ptr %0, i64 304
  %13 = load i32, ptr %12, align 8, !tbaa !3
  %14 = or i32 %13, 3072
  store i32 %14, ptr %12, align 8, !tbaa !3
  br label %20

15:                                               ; preds = %5
  tail call void @png_warning(ptr noundef nonnull %0, ptr noundef nonnull @.str) #11
  br label %16

16:                                               ; preds = %15, %5
  %17 = getelementptr inbounds nuw i8, ptr %0, i64 304
  %18 = load i32, ptr %17, align 8, !tbaa !3
  %19 = and i32 %18, -3073
  store i32 %19, ptr %17, align 8, !tbaa !3
  br label %20

20:                                               ; preds = %16, %11, %6, %5
  switch i32 %2, label %35 [
    i32 5, label %39
    i32 3, label %21
    i32 4, label %26
    i32 1, label %30
  ]

21:                                               ; preds = %20
  %22 = getelementptr inbounds nuw i8, ptr %0, i64 304
  %23 = load i32, ptr %22, align 8, !tbaa !3
  %24 = and i32 %23, -769
  %25 = or disjoint i32 %24, 256
  store i32 %25, ptr %22, align 8, !tbaa !3
  br label %39

26:                                               ; preds = %20
  %27 = getelementptr inbounds nuw i8, ptr %0, i64 304
  %28 = load i32, ptr %27, align 8, !tbaa !3
  %29 = or i32 %28, 768
  store i32 %29, ptr %27, align 8, !tbaa !3
  br label %39

30:                                               ; preds = %20
  %31 = getelementptr inbounds nuw i8, ptr %0, i64 304
  %32 = load i32, ptr %31, align 8, !tbaa !3
  %33 = and i32 %32, -769
  %34 = or disjoint i32 %33, 512
  store i32 %34, ptr %31, align 8, !tbaa !3
  br label %39

35:                                               ; preds = %20
  %36 = getelementptr inbounds nuw i8, ptr %0, i64 304
  %37 = load i32, ptr %36, align 8, !tbaa !3
  %38 = and i32 %37, -769
  store i32 %38, ptr %36, align 8, !tbaa !3
  br label %39

39:                                               ; preds = %3, %35, %30, %26, %21, %20
  ret void
}